target datalayout = "e-m:e-p270:32:32-p271:32:32-p272:64:64-i64:64-i128:128-f80:128-n8:16:32:64-S128"
target triple = "x86_64-unknown-linux-gnu"

%"union.std::aligned_storage<8, 8>::type" = type { [8 x i8] }
%"class.std::__shared_count" = type { ptr }
%"struct.arrow::(anonymous namespace)::ArrayExporter" = type { %"struct.arrow::(anonymous namespace)::ExportedArrayPrivateData", %"class.std::unique_ptr.60", %"class.std::vector.68" }
%"struct.arrow::(anonymous namespace)::ExportedArrayPrivateData" = type { %"class.arrow::internal::StaticVectorImpl.42", %struct.ArrowArray, %"class.arrow::internal::StaticVectorImpl.45", %"class.arrow::internal::StaticVectorImpl.49", %"class.std::shared_ptr.38", %"class.std::shared_ptr.52", %"class.std::vector.55" }
%"class.arrow::internal::StaticVectorImpl.42" = type { %"struct.arrow::internal::SmallVectorStorage.43" }
%"struct.arrow::internal::SmallVectorStorage.43" = type { [3 x %"class.arrow::internal::AlignedStorage.44"], i64, ptr, i64 }
%"class.arrow::internal::AlignedStorage.44" = type { %"union.std::aligned_storage<8, 8>::type" }
%struct.ArrowArray = type { i64, i64, i64, i64, i64, ptr, ptr, ptr, ptr, ptr }
%"class.arrow::internal::StaticVectorImpl.45" = type { %"struct.arrow::internal::SmallVectorStorage.46" }
%"struct.arrow::internal::SmallVectorStorage.46" = type { [1 x %"class.arrow::internal::AlignedStorage.47"], i64, ptr, i64 }
%"class.arrow::internal::AlignedStorage.47" = type { %"union.std::aligned_storage<80, 8>::type" }
%"union.std::aligned_storage<80, 8>::type" = type { [80 x i8] }
%"class.arrow::internal::StaticVectorImpl.49" = type { %"struct.arrow::internal::SmallVectorStorage.50" }
%"struct.arrow::internal::SmallVectorStorage.50" = type { [4 x %"class.arrow::internal::AlignedStorage.51"], i64, ptr, i64 }
%"class.arrow::internal::AlignedStorage.51" = type { %"union.std::aligned_storage<8, 8>::type" }
%"class.std::shared_ptr.38" = type { %"class.std::__shared_ptr.39" }
%"class.std::__shared_ptr.39" = type { ptr, %"class.std::__shared_count" }
%"class.std::shared_ptr.52" = type { %"class.std::__shared_ptr.53" }
%"class.std::__shared_ptr.53" = type { ptr, %"class.std::__shared_count" }
%"class.std::vector.55" = type { %"struct.std::_Vector_base.56" }
%"struct.std::_Vector_base.56" = type { %"struct.std::_Vector_base<long, std::allocator<long>>::_Vector_impl" }
%"struct.std::_Vector_base<long, std::allocator<long>>::_Vector_impl" = type { %"struct.std::_Vector_base<long, std::allocator<long>>::_Vector_impl_data" }
%"struct.std::_Vector_base<long, std::allocator<long>>::_Vector_impl_data" = type { ptr, ptr, ptr }
%"class.std::unique_ptr.60" = type { %"struct.std::__uniq_ptr_data.61" }
%"struct.std::__uniq_ptr_data.61" = type { %"class.std::__uniq_ptr_impl.62" }
%"class.std::__uniq_ptr_impl.62" = type { %"class.std::tuple.63" }
%"class.std::tuple.63" = type { %"struct.std::_Tuple_impl.64" }
%"struct.std::_Tuple_impl.64" = type { %"struct.std::_Head_base.67" }
%"struct.std::_Head_base.67" = type { ptr }
%"class.std::vector.68" = type { %"struct.std::_Vector_base.69" }
%"struct.std::_Vector_base.69" = type { %"struct.std::_Vector_base<arrow::(anonymous namespace)::ArrayExporter, std::allocator<arrow::(anonymous namespace)::ArrayExporter>>::_Vector_impl" }
%"struct.std::_Vector_base<arrow::(anonymous namespace)::ArrayExporter, std::allocator<arrow::(anonymous namespace)::ArrayExporter>>::_Vector_impl" = type { %"struct.std::_Vector_base<arrow::(anonymous namespace)::ArrayExporter, std::allocator<arrow::(anonymous namespace)::ArrayExporter>>::_Vector_impl_data" }
%"struct.std::_Vector_base<arrow::(anonymous namespace)::ArrayExporter, std::allocator<arrow::(anonymous namespace)::ArrayExporter>>::_Vector_impl_data" = type { ptr, ptr, ptr }

; Function Attrs: mustprogress nounwind uwtable
define internal noundef nonnull align 1 dereferenceable(1) ptr @_ZNSt10_Head_baseILm1ESt14default_deleteIN5arrow12_GLOBAL__N_113ArrayExporterEELb1EE7_M_headERS5_(ptr noundef nonnull align 1 dereferenceable(1) %__b) #1 align 2 {
entry:
  %__b.addr = alloca ptr, align 8
  store ptr %__b, ptr %__b.addr, align 8
  %0 = load ptr, ptr %__b.addr, align 8
  ret ptr %0
}

; Function Attrs: mustprogress nounwind uwtable
define internal noundef nonnull align 1 dereferenceable(1) ptr @_ZNSt11_Tuple_implILm1EJSt14default_deleteIN5arrow12_GLOBAL__N_113ArrayExporterEEEE7_M_headERS5_(ptr noundef nonnull align 1 dereferenceable(1) %__t) #1 align 2 {
entry:
  %__t.addr = alloca ptr, align 8
  store ptr %__t, ptr %__t.addr, align 8
  %0 = load ptr, ptr %__t.addr, align 8
  %call = call noundef nonnull align 1 dereferenceable(1) ptr @_ZNSt10_Head_baseILm1ESt14default_deleteIN5arrow12_GLOBAL__N_113ArrayExporterEELb1EE7_M_headERS5_(ptr noundef nonnull align 1 dereferenceable(1) %0) #12
  ret ptr %call
}

; Function Attrs: mustprogress nounwind uwtable
define internal noundef nonnull align 8 dereferenceable(8) ptr @_ZNSt10_Head_baseILm0EPN5arrow12_GLOBAL__N_113ArrayExporterELb0EE7_M_headERS4_(ptr noundef nonnull align 8 dereferenceable(8) %__b) #1 align 2 {
entry:
  %__b.addr = alloca ptr, align 8
  store ptr %__b, ptr %__b.addr, align 8
  %0 = load ptr, ptr %__b.addr, align 8
  %_M_head_impl = getelementptr inbounds %"struct.std::_Head_base.67", ptr %0, i32 0, i32 0
  ret ptr %_M_head_impl
}

; Function Attrs: mustprogress nounwind uwtable
define internal noundef nonnull align 1 dereferenceable(1) ptr @_ZSt12__get_helperILm1ESt14default_deleteIN5arrow12_GLOBAL__N_113ArrayExporterEEJEERT0_RSt11_Tuple_implIXT_EJS5_DpT1_EE(ptr noundef nonnull align 1 dereferenceable(1) %__t) #1 {
entry:
  %__t.addr = alloca ptr, align 8
  store ptr %__t, ptr %__t.addr, align 8
  %0 = load ptr, ptr %__t.addr, align 8
  %call = call noundef nonnull align 1 dereferenceable(1) ptr @_ZNSt11_Tuple_implILm1EJSt14default_deleteIN5arrow12_GLOBAL__N_113ArrayExporterEEEE7_M_headERS5_(ptr noundef nonnull align 1 dereferenceable(1) %0) #12
  ret ptr %call
}

; Function Attrs: mustprogress nounwind uwtable
define internal noundef nonnull align 8 dereferenceable(8) ptr @_ZNSt11_Tuple_implILm0EJPN5arrow12_GLOBAL__N_113ArrayExporterESt14default_deleteIS2_EEE7_M_headERS6_(ptr noundef nonnull align 8 dereferenceable(8) %__t) #1 align 2 {
entry:
  %__t.addr = alloca ptr, align 8
  store ptr %__t, ptr %__t.addr, align 8
  %0 = load ptr, ptr %__t.addr, align 8
  %call = call noundef nonnull align 8 dereferenceable(8) ptr @_ZNSt10_Head_baseILm0EPN5arrow12_GLOBAL__N_113ArrayExporterELb0EE7_M_headERS4_(ptr noundef nonnull align 8 dereferenceable(8) %0) #12
  ret ptr %call
}

; Function Attrs: mustprogress nounwind uwtable
define internal noundef nonnull align 1 dereferenceable(1) ptr @_ZSt3getILm1EJPN5arrow12_GLOBAL__N_113ArrayExporterESt14default_deleteIS2_EEERNSt13tuple_elementIXT_ESt5tupleIJDpT0_EEE4typeERSA_(ptr noundef nonnull align 8 dereferenceable(8) %__t) #1 {
entry:
  %__t.addr = alloca ptr, align 8
  store ptr %__t, ptr %__t.addr, align 8
  %0 = load ptr, ptr %__t.addr, align 8
  %call = call noundef nonnull align 1 dereferenceable(1) ptr @_ZSt12__get_helperILm1ESt14default_deleteIN5arrow12_GLOBAL__N_113ArrayExporterEEJEERT0_RSt11_Tuple_implIXT_EJS5_DpT1_EE(ptr noundef nonnull align 1 dereferenceable(1) %0) #12
  ret ptr %call
}

; Function Attrs: mustprogress nounwind uwtable
define internal noundef nonnull align 8 dereferenceable(8) ptr @_ZSt12__get_helperILm0EPN5arrow12_GLOBAL__N_113ArrayExporterEJSt14default_deleteIS2_EEERT0_RSt11_Tuple_implIXT_EJS6_DpT1_EE(ptr noundef nonnull align 8 dereferenceable(8) %__t) #1 {
entry:
  %__t.addr = alloca ptr, align 8
  store ptr %__t, ptr %__t.addr, align 8
  %0 = load ptr, ptr %__t.addr, align 8
  %call = call noundef nonnull align 8 dereferenceable(8) ptr @_ZNSt11_Tuple_implILm0EJPN5arrow12_GLOBAL__N_113ArrayExporterESt14default_deleteIS2_EEE7_M_headERS6_(ptr noundef nonnull align 8 dereferenceable(8) %0) #12
  ret ptr %call
}

; Function Attrs: mustprogress nounwind uwtable
define internal void @_ZN5arrow12_GLOBAL__N_113ArrayExporterD2Ev(ptr noundef nonnull align 8 dereferenceable(376) %this) unnamed_addr #1 align 2 {
entry:
  %this.addr = alloca ptr, align 8
  store ptr %this, ptr %this.addr, align 8
  %this1 = load ptr, ptr %this.addr, align 8
  %child_exporters_ = getelementptr inbounds %"struct.arrow::(anonymous namespace)::ArrayExporter", ptr %this1, i32 0, i32 2
  call void @_ZNSt6vectorIN5arrow12_GLOBAL__N_113ArrayExporterESaIS2_EED2Ev(ptr noundef nonnull align 8 dereferenceable(24) %child_exporters_) #12
  %dict_exporter_ = getelementptr inbounds %"struct.arrow::(anonymous namespace)::ArrayExporter", ptr %this1, i32 0, i32 1
  call void @_ZNSt10unique_ptrIN5arrow12_GLOBAL__N_113ArrayExporterESt14default_deleteIS2_EED2Ev(ptr noundef nonnull align 8 dereferenceable(8) %dict_exporter_) #12
  %export_ = getelementptr inbounds %"struct.arrow::(anonymous namespace)::ArrayExporter", ptr %this1, i32 0, i32 0
  call void @_ZN5arrow12_GLOBAL__N_124ExportedArrayPrivateDataD2Ev(ptr noundef nonnull align 8 dereferenceable(344) %export_) #12
  ret void
}

; Function Attrs: mustprogress nounwind uwtable
define internal noundef nonnull align 1 dereferenceable(1) ptr @_ZNSt15__uniq_ptr_implIN5arrow12_GLOBAL__N_113ArrayExporterESt14default_deleteIS2_EE10_M_deleterEv(ptr noundef nonnull align 8 dereferenceable(8) %this) #1 align 2 {
entry:
  %this.addr = alloca ptr, align 8
  store ptr %this, ptr %this.addr, align 8
  %this1 = load ptr, ptr %this.addr, align 8
  %_M_t = getelementptr inbounds %"class.std::__uniq_ptr_impl.62", ptr %this1, i32 0, i32 0
  %call = call noundef nonnull align 1 dereferenceable(1) ptr @_ZSt3getILm1EJPN5arrow12_GLOBAL__N_113ArrayExporterESt14default_deleteIS2_EEERNSt13tuple_elementIXT_ESt5tupleIJDpT0_EEE4typeERSA_(ptr noundef nonnull align 8 dereferenceable(8) %_M_t) #12
  ret ptr %call
}

; Function Attrs: mustprogress nounwind uwtable
define internal noundef nonnull align 8 dereferenceable(8) ptr @_ZSt3getILm0EJPN5arrow12_GLOBAL__N_113ArrayExporterESt14default_deleteIS2_EEERNSt13tuple_elementIXT_ESt5tupleIJDpT0_EEE4typeERSA_(ptr noundef nonnull align 8 dereferenceable(8) %__t) #1 {
entry:
  %__t.addr = alloca ptr, align 8
  store ptr %__t, ptr %__t.addr, align 8
  %0 = load ptr, ptr %__t.addr, align 8
  %call = call noundef nonnull align 8 dereferenceable(8) ptr @_ZSt12__get_helperILm0EPN5arrow12_GLOBAL__N_113ArrayExporterEJSt14default_deleteIS2_EEERT0_RSt11_Tuple_implIXT_EJS6_DpT1_EE(ptr noundef nonnull align 8 dereferenceable(8) %0) #12
  ret ptr %call
}

; Function Attrs: mustprogress nounwind uwtable
define internal void @_ZNKSt14default_deleteIN5arrow12_GLOBAL__N_113ArrayExporterEEclEPS2_(ptr noundef nonnull align 1 dereferenceable(1) %this, ptr noundef %__ptr) #1 align 2 {
entry:
  %this.addr = alloca ptr, align 8
  %__ptr.addr = alloca ptr, align 8
  store ptr %this, ptr %this.addr, align 8
  store ptr %__ptr, ptr %__ptr.addr, align 8
  %0 = load ptr, ptr %__ptr.addr, align 8
  %isnull = icmp eq ptr %0, null
  br i1 %isnull, label %delete.end, label %delete.notnull

delete.notnull:                                   ; preds = %entry
  call void @_ZN5arrow12_GLOBAL__N_113ArrayExporterD2Ev(ptr noundef nonnull align 8 dereferenceable(376) %0) #12
  call void @_ZdlPv(ptr noundef %0) #17
  br label %delete.end

delete.end:                                       ; preds = %delete.notnull, %entry
  ret void
}

; Function Attrs: mustprogress nounwind uwtable
define internal noundef nonnull align 1 dereferenceable(1) ptr @_ZNSt10unique_ptrIN5arrow12_GLOBAL__N_113ArrayExporterESt14default_deleteIS2_EE11get_deleterEv(ptr noundef nonnull align 8 dereferenceable(8) %this) #1 align 2 {
entry:
  %this.addr = alloca ptr, align 8
  store ptr %this, ptr %this.addr, align 8
  %this1 = load ptr, ptr %this.addr, align 8
  %_M_t = getelementptr inbounds %"class.std::unique_ptr.60", ptr %this1, i32 0, i32 0
  %call = call noundef nonnull align 1 dereferenceable(1) ptr @_ZNSt15__uniq_ptr_implIN5arrow12_GLOBAL__N_113ArrayExporterESt14default_deleteIS2_EE10_M_deleterEv(ptr noundef nonnull align 8 dereferenceable(8) %_M_t) #12
  ret ptr %call
}

; Function Attrs: mustprogress nounwind uwtable
define internal noundef nonnull align 8 dereferenceable(8) ptr @_ZNSt15__uniq_ptr_implIN5arrow12_GLOBAL__N_113ArrayExporterESt14default_deleteIS2_EE6_M_ptrEv(ptr noundef nonnull align 8 dereferenceable(8) %this) #1 align 2 {
entry:
  %this.addr = alloca ptr, align 8
  store ptr %this, ptr %this.addr, align 8
  %this1 = load ptr, ptr %this.addr, align 8
  %_M_t = getelementptr inbounds %"class.std::__uniq_ptr_impl.62", ptr %this1, i32 0, i32 0
  %call = call noundef nonnull align 8 dereferenceable(8) ptr @_ZSt3getILm0EJPN5arrow12_GLOBAL__N_113ArrayExporterESt14default_deleteIS2_EEERNSt13tuple_elementIXT_ESt5tupleIJDpT0_EEE4typeERSA_(ptr noundef nonnull align 8 dereferenceable(8) %_M_t) #12
  ret ptr %call
}

; Function Attrs: mustprogress nounwind uwtable
define internal void @_ZNSt10unique_ptrIN5arrow12_GLOBAL__N_113ArrayExporterESt14default_deleteIS2_EED2Ev(ptr noundef nonnull align 8 dereferenceable(8) %this) unnamed_addr #1 align 2 {
entry:
  %this.addr = alloca ptr, align 8
  %__ptr = alloca ptr, align 8
  store ptr %this, ptr %this.addr, align 8
  %this1 = load ptr, ptr %this.addr, align 8
  %_M_t = getelementptr inbounds %"class.std::unique_ptr.60", ptr %this1, i32 0, i32 0
  %call = call noundef nonnull align 8 dereferenceable(8) ptr @_ZNSt15__uniq_ptr_implIN5arrow12_GLOBAL__N_113ArrayExporterESt14default_deleteIS2_EE6_M_ptrEv(ptr noundef nonnull align 8 dereferenceable(8) %_M_t) #12
  store ptr %call, ptr %__ptr, align 8
  %0 = load ptr, ptr %__ptr, align 8
  %1 = load ptr, ptr %0, align 8
  %cmp = icmp ne ptr %1, null
  br i1 %cmp, label %if.then, label %if.end

if.then:                                          ; preds = %entry
  %call2 = call noundef nonnull align 1 dereferenceable(1) ptr @_ZNSt10unique_ptrIN5arrow12_GLOBAL__N_113ArrayExporterESt14default_deleteIS2_EE11get_deleterEv(ptr noundef nonnull align 8 dereferenceable(8) %this1) #12
  %2 = load ptr, ptr %__ptr, align 8
  %3 = load ptr, ptr %2, align 8
  call void @_ZNKSt14default_deleteIN5arrow12_GLOBAL__N_113ArrayExporterEEclEPS2_(ptr noundef nonnull align 1 dereferenceable(1) %call2, ptr noundef %3)
  br label %if.end

if.end:                                           ; preds = %if.then, %entry
  %4 = load ptr, ptr %__ptr, align 8
  store ptr null, ptr %4, align 8
  ret void
}