; Function Attrs: mustprogress nounwind uwtable
define internal fastcc void @_ZNSt10unique_ptrIN5arrow12_GLOBAL__N_113ArrayExporterESt14default_deleteIS2_EED2Ev(ptr nocapture noundef nonnull align 8 dereferenceable(8) %this) unnamed_addr #1 align 2 {
entry:
  %0 = load ptr, ptr %this, align 8
  %cmp.not = icmp eq ptr %0, null
  br i1 %cmp.not, label %if.end, label %_ZNKSt14default_deleteIN5arrow12_GLOBAL__N_113ArrayExporterEEclEPS2_.exit

_ZNKSt14default_deleteIN5arrow12_GLOBAL__N_113ArrayExporterEEclEPS2_.exit: ; preds = %entry
  %child_exporters_.i.i = getelementptr inbounds i8, ptr %0, i64 352
  tail call fastcc void @_ZNSt6vectorIN5arrow12_GLOBAL__N_113ArrayExporterESaIS2_EED2Ev(ptr noundef nonnull align 8 dereferenceable(24) %child_exporters_.i.i) #24
  %dict_exporter_.i.i = getelementptr inbounds i8, ptr %0, i64 344
  tail call fastcc void @_ZNSt10unique_ptrIN5arrow12_GLOBAL__N_113ArrayExporterESt14default_deleteIS2_EED2Ev(ptr noundef nonnull align 8 dereferenceable(8) %dict_exporter_.i.i) #24
  tail call fastcc void @_ZN5arrow12_GLOBAL__N_124ExportedArrayPrivateDataD2Ev(ptr noundef nonnull align 8 dereferenceable(344) %0) #24
  tail call void @_ZdlPv(ptr noundef nonnull %0) #26
  br label %if.end

if.end:                                           ; preds = %_ZNKSt14default_deleteIN5arrow12_GLOBAL__N_113ArrayExporterEEclEPS2_.exit, %entry
  store ptr null, ptr %this, align 8
  ret void
}